; ModuleID = 'source-C-CXX/4/161.c'
source_filename = "source-C-CXX/4/161.c"
target datalayout = "e-m:e-p270:32:32-p271:32:32-p272:64:64-i64:64-f80:128-n8:16:32:64-S128"
target triple = "x86_64-pc-linux-gnu"

@.str = private unnamed_addr constant [4 x i8] c"%lf\00", align 1
@.str.1 = private unnamed_addr constant [3 x i8] c"%s\00", align 1
@.str.2 = private unnamed_addr constant [6 x i8] c"error\00", align 1
@.str.3 = private unnamed_addr constant [4 x i8] c"yes\00", align 1
@.str.4 = private unnamed_addr constant [3 x i8] c"no\00", align 1

; Function Attrs: nofree nounwind sspstrong uwtable
define dso_local i32 @main() local_unnamed_addr #0 {
  %1 = alloca double, align 8
  %2 = alloca [100 x i8], align 16
  %3 = alloca [100 x i8], align 16
  %4 = bitcast double* %1 to i8*
  call void @llvm.lifetime.start.p0i8(i64 8, i8* nonnull %4) #4
  %5 = getelementptr inbounds [100 x i8], [100 x i8]* %2, i64 0, i64 0
  call void @llvm.lifetime.start.p0i8(i64 100, i8* nonnull %5) #4
  %6 = getelementptr inbounds [100 x i8], [100 x i8]* %3, i64 0, i64 0
  call void @llvm.lifetime.start.p0i8(i64 100, i8* nonnull %6) #4
  %7 = call i32 (i8*, ...) @__isoc99_scanf(i8* getelementptr inbounds ([4 x i8], [4 x i8]* @.str, i64 0, i64 0), double* nonnull %1)
  %8 = call i32 (i8*, ...) @__isoc99_scanf(i8* getelementptr inbounds ([3 x i8], [3 x i8]* @.str.1, i64 0, i64 0), i8* nonnull %5)
  %9 = call i32 (i8*, ...) @__isoc99_scanf(i8* getelementptr inbounds ([3 x i8], [3 x i8]* @.str.1, i64 0, i64 0), i8* nonnull %6)
  %10 = call i64 @strlen(i8* noundef nonnull %5) #5
  %11 = call i64 @strlen(i8* noundef nonnull %6) #5
  %12 = icmp eq i64 %10, %11
  br i1 %12, label %13, label %46

13:                                               ; preds = %0
  %14 = add i64 %10, -1
  br label %15

15:                                               ; preds = %13, %26
  %16 = phi i64 [ 0, %13 ], [ %30, %26 ]
  %17 = phi i1 [ false, %13 ], [ %31, %26 ]
  %18 = phi i32 [ 0, %13 ], [ %29, %26 ]
  %19 = getelementptr inbounds [100 x i8], [100 x i8]* %2, i64 0, i64 %16
  %20 = load i8, i8* %19, align 1, !tbaa !5
  switch i8 %20, label %24 [
    i8 65, label %21
    i8 71, label %21
    i8 67, label %21
    i8 84, label %21
  ]

21:                                               ; preds = %15, %15, %15, %15
  %22 = getelementptr inbounds [100 x i8], [100 x i8]* %3, i64 0, i64 %16
  %23 = load i8, i8* %22, align 1, !tbaa !5
  switch i8 %23, label %24 [
    i8 65, label %26
    i8 71, label %26
    i8 67, label %26
    i8 84, label %26
  ]

24:                                               ; preds = %21, %15
  %25 = call i32 (i8*, ...) @printf(i8* nonnull dereferenceable(1) getelementptr inbounds ([6 x i8], [6 x i8]* @.str.2, i64 0, i64 0))
  br label %33

26:                                               ; preds = %21, %21, %21, %21
  %27 = icmp eq i8 %20, %23
  %28 = zext i1 %27 to i32
  %29 = add nuw nsw i32 %18, %28
  %30 = add nuw i64 %16, 1
  %31 = icmp ule i64 %14, %16
  %32 = icmp eq i64 %30, %10
  br i1 %32, label %33, label %15, !llvm.loop !8

33:                                               ; preds = %26, %24
  %34 = phi i32 [ %18, %24 ], [ %29, %26 ]
  %35 = phi i1 [ %17, %24 ], [ %31, %26 ]
  %36 = sitofp i32 %34 to double
  %37 = call i64 @strlen(i8* noundef nonnull %5) #5
  %38 = uitofp i64 %37 to double
  %39 = fdiv double %36, %38
  %40 = load double, double* %1, align 8, !tbaa !10
  %41 = fcmp ogt double %39, %40
  %42 = select i1 %41, i1 %35, i1 false
  br i1 %42, label %46, label %43

43:                                               ; preds = %33
  %44 = fcmp ole double %39, %40
  %45 = select i1 %44, i1 %35, i1 false
  br i1 %45, label %46, label %49

46:                                               ; preds = %43, %33, %0
  %47 = phi i8* [ getelementptr inbounds ([6 x i8], [6 x i8]* @.str.2, i64 0, i64 0), %0 ], [ getelementptr inbounds ([4 x i8], [4 x i8]* @.str.3, i64 0, i64 0), %33 ], [ getelementptr inbounds ([3 x i8], [3 x i8]* @.str.4, i64 0, i64 0), %43 ]
  %48 = call i32 (i8*, ...) @printf(i8* nonnull dereferenceable(1) %47)
  br label %49

49:                                               ; preds = %46, %43
  call void @llvm.lifetime.end.p0i8(i64 100, i8* nonnull %6) #4
  call void @llvm.lifetime.end.p0i8(i64 100, i8* nonnull %5) #4
  call void @llvm.lifetime.end.p0i8(i64 8, i8* nonnull %4) #4
  ret i32 0
}

; Function Attrs: argmemonly mustprogress nofree nosync nounwind willreturn
declare void @llvm.lifetime.start.p0i8(i64 immarg, i8* nocapture) #1

; Function Attrs: nofree nounwind
declare noundef i32 @__isoc99_scanf(i8* nocapture noundef readonly, ...) local_unnamed_addr #2

; Function Attrs: argmemonly mustprogress nofree nounwind readonly willreturn
declare i64 @strlen(i8* nocapture) local_unnamed_addr #3

; Function Attrs: nofree nounwind
declare noundef i32 @printf(i8* nocapture noundef readonly, ...) local_unnamed_addr #2

; Function Attrs: argmemonly mustprogress nofree nosync nounwind willreturn
declare void @llvm.lifetime.end.p0i8(i64 immarg, i8* nocapture) #1


!llvm.module.flags = !{!0, !1, !2, !3}
!llvm.ident = !{!4}

!0 = !{i32 1, !"wchar_size", i32 4}
!1 = !{i32 7, !"PIC Level", i32 2}
!2 = !{i32 7, !"PIE Level", i32 2}
!3 = !{i32 7, !"uwtable", i32 1}
!4 = !{!"clang version 13.0.0"}
!5 = !{!6, !6, i64 0}
!6 = !{!"omnipotent char", !7, i64 0}
!7 = !{!"Simple C/C++ TBAA"}
!8 = distinct !{!8, !9}
!9 = !{!"llvm.loop.mustprogress"}
!10 = !{!11, !11, i64 0}
!11 = !{!"double", !6, i64 0}
